; Function Attrs: mustprogress uwtable
define hidden void @_ZN8facebook6hermes7tracing14TracingRuntime14bigintToStringERKNS_3jsi6BigIntEi(ptr noalias sret(%"class.facebook::jsi::String") align 8 %agg.result, ptr noundef nonnull align 8 dereferenceable(172) %this, ptr noundef nonnull align 8 dereferenceable(8) %bigint, i32 noundef %radix) unnamed_addr #0 align 2 personality ptr @__gxx_personality_v0 {
invoke.cont:
  %radix.addr = alloca i32, align 4
  %ref.tmp = alloca %"class.std::chrono::duration.37", align 8
  %ref.tmp2 = alloca i64, align 8
  %ref.tmp5 = alloca i64, align 8
  store i32 %radix, ptr %radix.addr, align 4
  %plain_.i = getelementptr inbounds i8, ptr %this, i64 16
  %0 = load ptr, ptr %plain_.i, align 8, !noalias !143
  %vtable.i = load ptr, ptr %0, align 8, !noalias !143
  %vfn.i = getelementptr inbounds i8, ptr %vtable.i, i64 216
  %1 = load ptr, ptr %vfn.i, align 8, !noalias !143
  tail call void %1(ptr sret(%"class.facebook::jsi::String") align 8 %agg.result, ptr noundef nonnull align 8 dereferenceable(8) %0, ptr noundef nonnull align 8 dereferenceable(8) %bigint, i32 noundef %radix)
  %trace_ = getelementptr inbounds i8, ptr %this, i64 32
  %call.i = tail call i64 @_ZNSt6chrono3_V212steady_clock3nowEv() #27
  %startTime_.i = getelementptr inbounds i8, ptr %this, i64 160
  %retval.sroa.0.0.copyload.i1.i.i = load i64, ptr %startTime_.i, align 8
  %sub.i.i.i = sub nsw i64 %call.i, %retval.sroa.0.0.copyload.i1.i.i
  %div.i.i.i = sdiv i64 %sub.i.i.i, 1000000
  store i64 %div.i.i.i, ptr %ref.tmp, align 8
  %vtable = load ptr, ptr %this, align 8
  %vfn = getelementptr inbounds i8, ptr %vtable, i64 680
  %2 = load ptr, ptr %vfn, align 8
  %call4 = invoke noundef i64 %2(ptr noundef nonnull align 8 dereferenceable(172) %this, ptr noundef nonnull align 8 dereferenceable(8) %agg.result)
          to label %invoke.cont3 unwind label %lpad

invoke.cont3:                                     ; preds = %invoke.cont
  store i64 %call4, ptr %ref.tmp2, align 8
  %vtable6 = load ptr, ptr %this, align 8
  %vfn7 = getelementptr inbounds i8, ptr %vtable6, i64 672
  %3 = load ptr, ptr %vfn7, align 8
  %call9 = invoke noundef i64 %3(ptr noundef nonnull align 8 dereferenceable(172) %this, ptr noundef nonnull align 8 dereferenceable(8) %bigint)
          to label %invoke.cont8 unwind label %lpad

invoke.cont8:                                     ; preds = %invoke.cont3
  store i64 %call9, ptr %ref.tmp5, align 8
  invoke void @_ZN8facebook6hermes7tracing10SynthTrace12emplace_backINS2_20BigIntToStringRecordEJNSt6chrono8durationIlSt5ratioILl1ELl1000EEEEmmRiEEEvDpOT0_(ptr noundef nonnull align 8 dereferenceable(48) %trace_, ptr noundef nonnull align 8 dereferenceable(8) %ref.tmp, ptr noundef nonnull align 8 dereferenceable(8) %ref.tmp2, ptr noundef nonnull align 8 dereferenceable(8) %ref.tmp5, ptr noundef nonnull align 4 dereferenceable(4) %radix.addr)
          to label %nrvo.skipdtor unwind label %lpad

lpad:                                             ; preds = %invoke.cont8, %invoke.cont3, %invoke.cont
  %4 = landingpad { ptr, i32 }
          cleanup
  %5 = load ptr, ptr %agg.result, align 8
  %tobool.not.i.i = icmp eq ptr %5, null
  br i1 %tobool.not.i.i, label %_ZN8facebook3jsi6StringD2Ev.exit, label %if.then.i.i

if.then.i.i:                                      ; preds = %lpad
  %vtable.i.i = load ptr, ptr %5, align 8
  %6 = load ptr, ptr %vtable.i.i, align 8
  invoke void %6(ptr noundef nonnull align 8 dereferenceable(8) %5)
          to label %_ZN8facebook3jsi6StringD2Ev.exit unwind label %terminate.lpad.i.i

terminate.lpad.i.i:                               ; preds = %if.then.i.i
  %7 = landingpad { ptr, i32 }
          catch ptr null
  %8 = extractvalue { ptr, i32 } %7, 0
  call void @__clang_call_terminate(ptr %8) #29
  unreachable

_ZN8facebook3jsi6StringD2Ev.exit:                 ; preds = %lpad, %if.then.i.i
  resume { ptr, i32 } %4

nrvo.skipdtor:                                    ; preds = %invoke.cont8
  ret void
}